target datalayout = "e-m:e-p270:32:32-p271:32:32-p272:64:64-i64:64-i128:128-f80:128-n8:16:32:64-S128"
target triple = "x86_64-pc-linux-gnu"

%struct.re_registers = type { i32, i32, ptr, ptr, ptr }
%struct.OnigRegSetStruct = type { ptr, i32, i32, ptr, i32, i32, i32, i32, i32 }
%struct.RR = type { ptr, ptr }
%struct.re_pattern_buffer = type { ptr, ptr, ptr, i32, i32, ptr, ptr, i32, i32, i32, i32, i32, i32, i32, i32, i32, ptr, ptr, i32, ptr, i32, ptr, i32, i32, i32, i32, i32, i32, ptr, ptr, [256 x i8], i32, i32, i32, ptr }

; Function Attrs: nounwind uwtable
define dso_local void @onig_region_init(ptr noundef %0) #0 {
  %2 = alloca ptr, align 8
  store ptr %0, ptr %2, align 8, !tbaa !21
  %3 = load ptr, ptr %2, align 8, !tbaa !21
  %4 = getelementptr inbounds nuw %struct.re_registers, ptr %3, i32 0, i32 1
  store i32 0, ptr %4, align 4, !tbaa !27
  %5 = load ptr, ptr %2, align 8, !tbaa !21
  %6 = getelementptr inbounds nuw %struct.re_registers, ptr %5, i32 0, i32 0
  store i32 0, ptr %6, align 8, !tbaa !32
  %7 = load ptr, ptr %2, align 8, !tbaa !21
  %8 = getelementptr inbounds nuw %struct.re_registers, ptr %7, i32 0, i32 2
  store ptr null, ptr %8, align 8, !tbaa !29
  %9 = load ptr, ptr %2, align 8, !tbaa !21
  %10 = getelementptr inbounds nuw %struct.re_registers, ptr %9, i32 0, i32 3
  store ptr null, ptr %10, align 8, !tbaa !28
  %11 = load ptr, ptr %2, align 8, !tbaa !21
  %12 = getelementptr inbounds nuw %struct.re_registers, ptr %11, i32 0, i32 4
  store ptr null, ptr %12, align 8, !tbaa !23
  ret void
}

; Function Attrs: nounwind uwtable
define internal void @update_regset_by_reg(ptr noundef %0, ptr noundef %1) #0 {
  %3 = alloca ptr, align 8
  %4 = alloca ptr, align 8
  %5 = alloca i32, align 4
  %6 = alloca i32, align 4
  %7 = alloca i32, align 4
  store ptr %0, ptr %3, align 8, !tbaa !62
  store ptr %1, ptr %4, align 8, !tbaa !57
  %8 = load ptr, ptr %3, align 8, !tbaa !62
  %9 = getelementptr inbounds nuw %struct.OnigRegSetStruct, ptr %8, i32 0, i32 1
  %10 = load i32, ptr %9, align 8, !tbaa !67
  %11 = icmp eq i32 %10, 1
  br i1 %11, label %12, label %55

12:                                               ; preds = %2
  %13 = load ptr, ptr %4, align 8, !tbaa !57
  %14 = getelementptr inbounds nuw %struct.re_pattern_buffer, ptr %13, i32 0, i32 17
  %15 = load ptr, ptr %14, align 8, !tbaa !108
  %16 = load ptr, ptr %3, align 8, !tbaa !62
  %17 = getelementptr inbounds nuw %struct.OnigRegSetStruct, ptr %16, i32 0, i32 3
  store ptr %15, ptr %17, align 8, !tbaa !70
  %18 = load ptr, ptr %4, align 8, !tbaa !57
  %19 = getelementptr inbounds nuw %struct.re_pattern_buffer, ptr %18, i32 0, i32 24
  %20 = load i32, ptr %19, align 8, !tbaa !184
  %21 = load ptr, ptr %3, align 8, !tbaa !62
  %22 = getelementptr inbounds nuw %struct.OnigRegSetStruct, ptr %21, i32 0, i32 4
  store i32 %20, ptr %22, align 8, !tbaa !81
  %23 = load ptr, ptr %4, align 8, !tbaa !57
  %24 = getelementptr inbounds nuw %struct.re_pattern_buffer, ptr %23, i32 0, i32 25
  %25 = load i32, ptr %24, align 4, !tbaa !190
  %26 = load ptr, ptr %3, align 8, !tbaa !62
  %27 = getelementptr inbounds nuw %struct.OnigRegSetStruct, ptr %26, i32 0, i32 5
  store i32 %25, ptr %27, align 4, !tbaa !82
  %28 = load ptr, ptr %4, align 8, !tbaa !57
  %29 = getelementptr inbounds nuw %struct.re_pattern_buffer, ptr %28, i32 0, i32 26
  %30 = load i32, ptr %29, align 8, !tbaa !191
  %31 = load ptr, ptr %3, align 8, !tbaa !62
  %32 = getelementptr inbounds nuw %struct.OnigRegSetStruct, ptr %31, i32 0, i32 6
  store i32 %30, ptr %32, align 8, !tbaa !83
  %33 = load ptr, ptr %4, align 8, !tbaa !57
  %34 = getelementptr inbounds nuw %struct.re_pattern_buffer, ptr %33, i32 0, i32 22
  %35 = load i32, ptr %34, align 8, !tbaa !175
  %36 = icmp eq i32 %35, 0
  br i1 %36, label %42, label %37

37:                                               ; preds = %12
  %38 = load ptr, ptr %4, align 8, !tbaa !57
  %39 = getelementptr inbounds nuw %struct.re_pattern_buffer, ptr %38, i32 0, i32 33
  %40 = load i32, ptr %39, align 8, !tbaa !176
  %41 = icmp eq i32 %40, -1
  br label %42

42:                                               ; preds = %37, %12
  %43 = phi i1 [ true, %12 ], [ %41, %37 ]
  %44 = select i1 %43, i32 0, i32 1
  %45 = load ptr, ptr %3, align 8, !tbaa !62
  %46 = getelementptr inbounds nuw %struct.OnigRegSetStruct, ptr %45, i32 0, i32 7
  store i32 %44, ptr %46, align 4, !tbaa !181
  %47 = load ptr, ptr %4, align 8, !tbaa !57
  %48 = getelementptr inbounds nuw %struct.re_pattern_buffer, ptr %47, i32 0, i32 24
  %49 = load i32, ptr %48, align 8, !tbaa !184
  %50 = and i32 %49, 16384
  %51 = icmp ne i32 %50, 0
  %52 = select i1 %51, i32 1, i32 0
  %53 = load ptr, ptr %3, align 8, !tbaa !62
  %54 = getelementptr inbounds nuw %struct.OnigRegSetStruct, ptr %53, i32 0, i32 8
  store i32 %52, ptr %54, align 8, !tbaa !186
  br label %124

55:                                               ; preds = %2
  call void @llvm.lifetime.start.p0(i64 4, ptr %5) #9
  %56 = load ptr, ptr %3, align 8, !tbaa !62
  %57 = getelementptr inbounds nuw %struct.OnigRegSetStruct, ptr %56, i32 0, i32 4
  %58 = load i32, ptr %57, align 8, !tbaa !81
  %59 = load ptr, ptr %4, align 8, !tbaa !57
  %60 = getelementptr inbounds nuw %struct.re_pattern_buffer, ptr %59, i32 0, i32 24
  %61 = load i32, ptr %60, align 8, !tbaa !184
  %62 = and i32 %58, %61
  store i32 %62, ptr %5, align 4, !tbaa !9
  %63 = load i32, ptr %5, align 4, !tbaa !9
  %64 = icmp ne i32 %63, 0
  br i1 %64, label %65, label %98

65:                                               ; preds = %55
  call void @llvm.lifetime.start.p0(i64 4, ptr %6) #9
  call void @llvm.lifetime.start.p0(i64 4, ptr %7) #9
  %66 = load ptr, ptr %3, align 8, !tbaa !62
  %67 = getelementptr inbounds nuw %struct.OnigRegSetStruct, ptr %66, i32 0, i32 5
  %68 = load i32, ptr %67, align 4, !tbaa !82
  store i32 %68, ptr %6, align 4, !tbaa !9
  %69 = load ptr, ptr %3, align 8, !tbaa !62
  %70 = getelementptr inbounds nuw %struct.OnigRegSetStruct, ptr %69, i32 0, i32 6
  %71 = load i32, ptr %70, align 8, !tbaa !83
  store i32 %71, ptr %7, align 4, !tbaa !9
  %72 = load i32, ptr %6, align 4, !tbaa !9
  %73 = load ptr, ptr %4, align 8, !tbaa !57
  %74 = getelementptr inbounds nuw %struct.re_pattern_buffer, ptr %73, i32 0, i32 25
  %75 = load i32, ptr %74, align 4, !tbaa !190
  %76 = icmp ugt i32 %72, %75
  br i1 %76, label %77, label %81

77:                                               ; preds = %65
  %78 = load ptr, ptr %4, align 8, !tbaa !57
  %79 = getelementptr inbounds nuw %struct.re_pattern_buffer, ptr %78, i32 0, i32 25
  %80 = load i32, ptr %79, align 4, !tbaa !190
  store i32 %80, ptr %6, align 4, !tbaa !9
  br label %81

81:                                               ; preds = %77, %65
  %82 = load i32, ptr %7, align 4, !tbaa !9
  %83 = load ptr, ptr %4, align 8, !tbaa !57
  %84 = getelementptr inbounds nuw %struct.re_pattern_buffer, ptr %83, i32 0, i32 26
  %85 = load i32, ptr %84, align 8, !tbaa !191
  %86 = icmp ult i32 %82, %85
  br i1 %86, label %87, label %91

87:                                               ; preds = %81
  %88 = load ptr, ptr %4, align 8, !tbaa !57
  %89 = getelementptr inbounds nuw %struct.re_pattern_buffer, ptr %88, i32 0, i32 26
  %90 = load i32, ptr %89, align 8, !tbaa !191
  store i32 %90, ptr %7, align 4, !tbaa !9
  br label %91

91:                                               ; preds = %87, %81
  %92 = load i32, ptr %6, align 4, !tbaa !9
  %93 = load ptr, ptr %3, align 8, !tbaa !62
  %94 = getelementptr inbounds nuw %struct.OnigRegSetStruct, ptr %93, i32 0, i32 5
  store i32 %92, ptr %94, align 4, !tbaa !82
  %95 = load i32, ptr %7, align 4, !tbaa !9
  %96 = load ptr, ptr %3, align 8, !tbaa !62
  %97 = getelementptr inbounds nuw %struct.OnigRegSetStruct, ptr %96, i32 0, i32 6
  store i32 %95, ptr %97, align 8, !tbaa !83
  call void @llvm.lifetime.end.p0(i64 4, ptr %7) #9
  call void @llvm.lifetime.end.p0(i64 4, ptr %6) #9
  br label %98

98:                                               ; preds = %91, %55
  %99 = load i32, ptr %5, align 4, !tbaa !9
  %100 = load ptr, ptr %3, align 8, !tbaa !62
  %101 = getelementptr inbounds nuw %struct.OnigRegSetStruct, ptr %100, i32 0, i32 4
  store i32 %99, ptr %101, align 8, !tbaa !81
  %102 = load ptr, ptr %4, align 8, !tbaa !57
  %103 = getelementptr inbounds nuw %struct.re_pattern_buffer, ptr %102, i32 0, i32 22
  %104 = load i32, ptr %103, align 8, !tbaa !175
  %105 = icmp eq i32 %104, 0
  br i1 %105, label %111, label %106

106:                                              ; preds = %98
  %107 = load ptr, ptr %4, align 8, !tbaa !57
  %108 = getelementptr inbounds nuw %struct.re_pattern_buffer, ptr %107, i32 0, i32 33
  %109 = load i32, ptr %108, align 8, !tbaa !176
  %110 = icmp eq i32 %109, -1
  br i1 %110, label %111, label %114

111:                                              ; preds = %106, %98
  %112 = load ptr, ptr %3, align 8, !tbaa !62
  %113 = getelementptr inbounds nuw %struct.OnigRegSetStruct, ptr %112, i32 0, i32 7
  store i32 0, ptr %113, align 4, !tbaa !181
  br label %114

114:                                              ; preds = %111, %106
  %115 = load ptr, ptr %4, align 8, !tbaa !57
  %116 = getelementptr inbounds nuw %struct.re_pattern_buffer, ptr %115, i32 0, i32 24
  %117 = load i32, ptr %116, align 8, !tbaa !184
  %118 = and i32 %117, 16384
  %119 = icmp ne i32 %118, 0
  br i1 %119, label %120, label %123

120:                                              ; preds = %114
  %121 = load ptr, ptr %3, align 8, !tbaa !62
  %122 = getelementptr inbounds nuw %struct.OnigRegSetStruct, ptr %121, i32 0, i32 8
  store i32 1, ptr %122, align 8, !tbaa !186
  br label %123

123:                                              ; preds = %120, %114
  call void @llvm.lifetime.end.p0(i64 4, ptr %5) #9
  br label %124

124:                                              ; preds = %123, %42
  ret void
}

; Function Attrs: nounwind uwtable
define dso_local ptr @onig_region_new() #0 {
  %1 = alloca ptr, align 8
  %2 = alloca ptr, align 8
  %3 = alloca i32, align 4
  call void @llvm.lifetime.start.p0(i64 8, ptr %2) #9
  %4 = call noalias ptr @malloc(i64 noundef 32) #10
  store ptr %4, ptr %2, align 8, !tbaa !21
  %5 = load ptr, ptr %2, align 8, !tbaa !21
  %6 = icmp eq ptr %5, null
  br i1 %6, label %7, label %8

7:                                                ; preds = %0
  store ptr null, ptr %1, align 8
  store i32 1, ptr %3, align 4
  br label %11

8:                                                ; preds = %0
  %9 = load ptr, ptr %2, align 8, !tbaa !21
  call void @onig_region_init(ptr noundef %9)
  %10 = load ptr, ptr %2, align 8, !tbaa !21
  store ptr %10, ptr %1, align 8
  store i32 1, ptr %3, align 4
  br label %11

11:                                               ; preds = %8, %7
  call void @llvm.lifetime.end.p0(i64 8, ptr %2) #9
  %12 = load ptr, ptr %1, align 8
  ret ptr %12
}

; Function Attrs: nounwind uwtable
define dso_local i32 @onig_regset_add(ptr noundef %0, ptr noundef %1) #0 {
  %3 = alloca i32, align 4
  %4 = alloca ptr, align 8
  %5 = alloca ptr, align 8
  %6 = alloca ptr, align 8
  %7 = alloca i32, align 4
  %8 = alloca ptr, align 8
  %9 = alloca i32, align 4
  store ptr %0, ptr %4, align 8, !tbaa !62
  store ptr %1, ptr %5, align 8, !tbaa !57
  call void @llvm.lifetime.start.p0(i64 8, ptr %6) #9
  %10 = load ptr, ptr %5, align 8, !tbaa !57
  %11 = getelementptr inbounds nuw %struct.re_pattern_buffer, ptr %10, i32 0, i32 18
  %12 = load i32, ptr %11, align 8, !tbaa !86
  %13 = and i32 %12, 16
  %14 = icmp ne i32 %13, 0
  br i1 %14, label %15, label %16

15:                                               ; preds = %2
  store i32 -30, ptr %3, align 4
  store i32 1, ptr %7, align 4
  br label %95

16:                                               ; preds = %2
  %17 = load ptr, ptr %4, align 8, !tbaa !62
  %18 = getelementptr inbounds nuw %struct.OnigRegSetStruct, ptr %17, i32 0, i32 1
  %19 = load i32, ptr %18, align 8, !tbaa !67
  %20 = icmp ne i32 %19, 0
  br i1 %20, label %21, label %30

21:                                               ; preds = %16
  %22 = load ptr, ptr %5, align 8, !tbaa !57
  %23 = getelementptr inbounds nuw %struct.re_pattern_buffer, ptr %22, i32 0, i32 17
  %24 = load ptr, ptr %23, align 8, !tbaa !108
  %25 = load ptr, ptr %4, align 8, !tbaa !62
  %26 = getelementptr inbounds nuw %struct.OnigRegSetStruct, ptr %25, i32 0, i32 3
  %27 = load ptr, ptr %26, align 8, !tbaa !70
  %28 = icmp ne ptr %24, %27
  br i1 %28, label %29, label %30

29:                                               ; preds = %21
  store i32 -30, ptr %3, align 4
  store i32 1, ptr %7, align 4
  br label %95

30:                                               ; preds = %21, %16
  %31 = load ptr, ptr %4, align 8, !tbaa !62
  %32 = getelementptr inbounds nuw %struct.OnigRegSetStruct, ptr %31, i32 0, i32 1
  %33 = load i32, ptr %32, align 8, !tbaa !67
  %34 = load ptr, ptr %4, align 8, !tbaa !62
  %35 = getelementptr inbounds nuw %struct.OnigRegSetStruct, ptr %34, i32 0, i32 2
  %36 = load i32, ptr %35, align 4, !tbaa !208
  %37 = icmp sge i32 %33, %36
  br i1 %37, label %38, label %63

38:                                               ; preds = %30
  call void @llvm.lifetime.start.p0(i64 8, ptr %8) #9
  call void @llvm.lifetime.start.p0(i64 4, ptr %9) #9
  %39 = load ptr, ptr %4, align 8, !tbaa !62
  %40 = getelementptr inbounds nuw %struct.OnigRegSetStruct, ptr %39, i32 0, i32 2
  %41 = load i32, ptr %40, align 4, !tbaa !208
  %42 = mul nsw i32 %41, 2
  store i32 %42, ptr %9, align 4, !tbaa !9
  %43 = load ptr, ptr %4, align 8, !tbaa !62
  %44 = getelementptr inbounds nuw %struct.OnigRegSetStruct, ptr %43, i32 0, i32 0
  %45 = load ptr, ptr %44, align 8, !tbaa !72
  %46 = load i32, ptr %9, align 4, !tbaa !9
  %47 = sext i32 %46 to i64
  %48 = mul i64 16, %47
  %49 = call ptr @realloc(ptr noundef %45, i64 noundef %48) #11
  store ptr %49, ptr %8, align 8, !tbaa !17
  %50 = load ptr, ptr %8, align 8, !tbaa !17
  %51 = icmp eq ptr %50, null
  br i1 %51, label %52, label %53

52:                                               ; preds = %38
  store i32 -5, ptr %3, align 4
  store i32 1, ptr %7, align 4
  br label %60

53:                                               ; preds = %38
  %54 = load ptr, ptr %8, align 8, !tbaa !17
  %55 = load ptr, ptr %4, align 8, !tbaa !62
  %56 = getelementptr inbounds nuw %struct.OnigRegSetStruct, ptr %55, i32 0, i32 0
  store ptr %54, ptr %56, align 8, !tbaa !72
  %57 = load i32, ptr %9, align 4, !tbaa !9
  %58 = load ptr, ptr %4, align 8, !tbaa !62
  %59 = getelementptr inbounds nuw %struct.OnigRegSetStruct, ptr %58, i32 0, i32 2
  store i32 %57, ptr %59, align 4, !tbaa !208
  store i32 0, ptr %7, align 4
  br label %60

60:                                               ; preds = %53, %52
  call void @llvm.lifetime.end.p0(i64 4, ptr %9) #9
  call void @llvm.lifetime.end.p0(i64 8, ptr %8) #9
  %61 = load i32, ptr %7, align 4
  switch i32 %61, label %95 [
    i32 0, label %62
  ]

62:                                               ; preds = %60
  br label %63

63:                                               ; preds = %62, %30
  %64 = call ptr @onig_region_new()
  store ptr %64, ptr %6, align 8, !tbaa !21
  %65 = load ptr, ptr %6, align 8, !tbaa !21
  %66 = icmp eq ptr %65, null
  br i1 %66, label %67, label %68

67:                                               ; preds = %63
  store i32 -5, ptr %3, align 4
  store i32 1, ptr %7, align 4
  br label %95

68:                                               ; preds = %63
  %69 = load ptr, ptr %5, align 8, !tbaa !57
  %70 = load ptr, ptr %4, align 8, !tbaa !62
  %71 = getelementptr inbounds nuw %struct.OnigRegSetStruct, ptr %70, i32 0, i32 0
  %72 = load ptr, ptr %71, align 8, !tbaa !72
  %73 = load ptr, ptr %4, align 8, !tbaa !62
  %74 = getelementptr inbounds nuw %struct.OnigRegSetStruct, ptr %73, i32 0, i32 1
  %75 = load i32, ptr %74, align 8, !tbaa !67
  %76 = sext i32 %75 to i64
  %77 = getelementptr inbounds %struct.RR, ptr %72, i64 %76
  %78 = getelementptr inbounds nuw %struct.RR, ptr %77, i32 0, i32 0
  store ptr %69, ptr %78, align 8, !tbaa !73
  %79 = load ptr, ptr %6, align 8, !tbaa !21
  %80 = load ptr, ptr %4, align 8, !tbaa !62
  %81 = getelementptr inbounds nuw %struct.OnigRegSetStruct, ptr %80, i32 0, i32 0
  %82 = load ptr, ptr %81, align 8, !tbaa !72
  %83 = load ptr, ptr %4, align 8, !tbaa !62
  %84 = getelementptr inbounds nuw %struct.OnigRegSetStruct, ptr %83, i32 0, i32 1
  %85 = load i32, ptr %84, align 8, !tbaa !67
  %86 = sext i32 %85 to i64
  %87 = getelementptr inbounds %struct.RR, ptr %82, i64 %86
  %88 = getelementptr inbounds nuw %struct.RR, ptr %87, i32 0, i32 1
  store ptr %79, ptr %88, align 8, !tbaa !75
  %89 = load ptr, ptr %4, align 8, !tbaa !62
  %90 = getelementptr inbounds nuw %struct.OnigRegSetStruct, ptr %89, i32 0, i32 1
  %91 = load i32, ptr %90, align 8, !tbaa !67
  %92 = add nsw i32 %91, 1
  store i32 %92, ptr %90, align 8, !tbaa !67
  %93 = load ptr, ptr %4, align 8, !tbaa !62
  %94 = load ptr, ptr %5, align 8, !tbaa !57
  call void @update_regset_by_reg(ptr noundef %93, ptr noundef %94)
  store i32 0, ptr %3, align 4
  store i32 1, ptr %7, align 4
  br label %95

95:                                               ; preds = %68, %67, %60, %29, %15
  call void @llvm.lifetime.end.p0(i64 8, ptr %6) #9
  %96 = load i32, ptr %3, align 4
  ret i32 %96
}