; Function Attrs: mustprogress nounwind willreturn uwtable
define dso_local range(i32 -30, 1) i32 @onig_regset_add(ptr noundef captures(none) %0, ptr noundef %1) local_unnamed_addr #6 {
  %3 = getelementptr inbounds nuw i8, ptr %1, i64 104
  %4 = load i32, ptr %3, align 8, !tbaa !79
  %5 = and i32 %4, 16
  %.not = icmp eq i32 %5, 0
  br i1 %.not, label %6, label %.critedge

6:                                                ; preds = %2
  %7 = getelementptr inbounds nuw i8, ptr %0, i64 8
  %8 = load i32, ptr %7, align 8, !tbaa !57
  %.not29 = icmp eq i32 %8, 0
  br i1 %.not29, label %14, label %9

9:                                                ; preds = %6
  %10 = getelementptr inbounds nuw i8, ptr %1, i64 96
  %11 = load ptr, ptr %10, align 8, !tbaa !98
  %12 = getelementptr inbounds nuw i8, ptr %0, i64 16
  %13 = load ptr, ptr %12, align 8, !tbaa !60
  %.not30 = icmp eq ptr %11, %13
  br i1 %.not30, label %14, label %.critedge

14:                                               ; preds = %9, %6
  %15 = getelementptr inbounds nuw i8, ptr %0, i64 12
  %16 = load i32, ptr %15, align 4, !tbaa !201
  %.not31 = icmp slt i32 %8, %16
  br i1 %.not31, label %24, label %17

17:                                               ; preds = %14
  %18 = shl nsw i32 %16, 1
  %19 = load ptr, ptr %0, align 8, !tbaa !61
  %20 = sext i32 %18 to i64
  %21 = shl nsw i64 %20, 4
  %22 = tail call ptr @realloc(ptr noundef %19, i64 noundef %21) #29
  %.not32 = icmp eq ptr %22, null
  br i1 %.not32, label %.critedge, label %23

23:                                               ; preds = %17
  store ptr %22, ptr %0, align 8, !tbaa !61
  store i32 %18, ptr %15, align 4, !tbaa !201
  br label %24

24:                                               ; preds = %23, %14
  %calloc.i = tail call noalias noundef dereferenceable_or_null(32) ptr @calloc(i64 1, i64 32)
  %25 = icmp eq ptr %calloc.i, null
  br i1 %25, label %.critedge, label %26

26:                                               ; preds = %24
  %27 = load ptr, ptr %0, align 8, !tbaa !61
  %28 = load i32, ptr %7, align 8, !tbaa !57
  %29 = sext i32 %28 to i64
  %30 = getelementptr inbounds %struct.RR, ptr %27, i64 %29
  store ptr %1, ptr %30, align 8, !tbaa !62
  %31 = getelementptr inbounds %struct.RR, ptr %27, i64 %29, i32 1
  store ptr %calloc.i, ptr %31, align 8, !tbaa !64
  %32 = add nsw i32 %28, 1
  store i32 %32, ptr %7, align 8, !tbaa !57
  %33 = icmp eq i32 %28, 0
  br i1 %33, label %34, label %58

34:                                               ; preds = %26
  %35 = getelementptr inbounds nuw i8, ptr %1, i64 96
  %36 = load ptr, ptr %35, align 8, !tbaa !98
  %37 = getelementptr inbounds nuw i8, ptr %0, i64 16
  store ptr %36, ptr %37, align 8, !tbaa !60
  %38 = getelementptr inbounds nuw i8, ptr %1, i64 144
  %39 = load i32, ptr %38, align 8, !tbaa !178
  %40 = getelementptr inbounds nuw i8, ptr %0, i64 24
  store i32 %39, ptr %40, align 8, !tbaa !74
  %41 = getelementptr inbounds nuw i8, ptr %1, i64 148
  %42 = load i32, ptr %41, align 4, !tbaa !185
  %43 = getelementptr inbounds nuw i8, ptr %0, i64 28
  store i32 %42, ptr %43, align 4, !tbaa !75
  %44 = getelementptr inbounds nuw i8, ptr %1, i64 152
  %45 = load i32, ptr %44, align 8, !tbaa !186
  %46 = getelementptr inbounds nuw i8, ptr %0, i64 32
  store i32 %45, ptr %46, align 8, !tbaa !76
  %47 = getelementptr inbounds nuw i8, ptr %1, i64 136
  %48 = load i32, ptr %47, align 8, !tbaa !170
  %49 = icmp eq i32 %48, 0
  br i1 %49, label %55, label %50

50:                                               ; preds = %34
  %51 = getelementptr inbounds nuw i8, ptr %1, i64 440
  %52 = load i32, ptr %51, align 8, !tbaa !171
  %53 = icmp ne i32 %52, -1
  %54 = zext i1 %53 to i32
  br label %55

55:                                               ; preds = %50, %34
  %not..i = phi i32 [ 0, %34 ], [ %54, %50 ]
  %56 = getelementptr inbounds nuw i8, ptr %0, i64 36
  store i32 %not..i, ptr %56, align 4, !tbaa !174
  %57 = lshr i32 %39, 14
  %.lobit.i = and i32 %57, 1
  br label %.sink.split.i

58:                                               ; preds = %26
  %59 = getelementptr inbounds nuw i8, ptr %0, i64 24
  %60 = load i32, ptr %59, align 8, !tbaa !74
  %61 = getelementptr inbounds nuw i8, ptr %1, i64 144
  %62 = load i32, ptr %61, align 8, !tbaa !178
  %63 = and i32 %62, %60
  %.not.i = icmp eq i32 %63, 0
  br i1 %.not.i, label %73, label %64

64:                                               ; preds = %58
  %65 = getelementptr inbounds nuw i8, ptr %0, i64 28
  %66 = load i32, ptr %65, align 4, !tbaa !75
  %67 = getelementptr inbounds nuw i8, ptr %0, i64 32
  %68 = load i32, ptr %67, align 8, !tbaa !76
  %69 = getelementptr inbounds nuw i8, ptr %1, i64 148
  %70 = load i32, ptr %69, align 4, !tbaa !185
  %spec.select.i = tail call i32 @llvm.umin.i32(i32 %66, i32 %70)
  %71 = getelementptr inbounds nuw i8, ptr %1, i64 152
  %72 = load i32, ptr %71, align 8, !tbaa !186
  %.0.i = tail call i32 @llvm.umax.i32(i32 %68, i32 %72)
  store i32 %spec.select.i, ptr %65, align 4, !tbaa !75
  store i32 %.0.i, ptr %67, align 8, !tbaa !76
  br label %73

73:                                               ; preds = %64, %58
  store i32 %63, ptr %59, align 8, !tbaa !74
  %74 = getelementptr inbounds nuw i8, ptr %1, i64 136
  %75 = load i32, ptr %74, align 8, !tbaa !170
  %76 = icmp eq i32 %75, 0
  br i1 %76, label %81, label %77

77:                                               ; preds = %73
  %78 = getelementptr inbounds nuw i8, ptr %1, i64 440
  %79 = load i32, ptr %78, align 8, !tbaa !171
  %80 = icmp eq i32 %79, -1
  br i1 %80, label %81, label %83

81:                                               ; preds = %77, %73
  %82 = getelementptr inbounds nuw i8, ptr %0, i64 36
  store i32 0, ptr %82, align 4, !tbaa !174
  br label %83

83:                                               ; preds = %81, %77
  %84 = and i32 %62, 16384
  %.not40.i = icmp eq i32 %84, 0
  br i1 %.not40.i, label %.critedge, label %.sink.split.i

.sink.split.i:                                    ; preds = %83, %55
  %.sink.i = phi i32 [ %.lobit.i, %55 ], [ 1, %83 ]
  %85 = getelementptr inbounds nuw i8, ptr %0, i64 40
  store i32 %.sink.i, ptr %85, align 8, !tbaa !175
  br label %.critedge

.critedge:                                        ; preds = %.sink.split.i, %83, %17, %24, %9, %2
  %.0 = phi i32 [ -30, %2 ], [ -30, %9 ], [ -5, %24 ], [ -5, %17 ], [ 0, %83 ], [ 0, %.sink.split.i ]
  ret i32 %.0
}